; Function Attrs: null_pointer_is_valid sspstrong uwtable
define hidden ptr @p_ipv6_pinfo_select_root(ptr noundef %0, ptr noundef readnone captures(ret: address, provenance) %1) local_unnamed_addr #0 {
  %3 = getelementptr inbounds nuw i8, ptr %0, i64 408
  %4 = load ptr, ptr %3, align 8
  %5 = load i32, ptr @proto_ipv6, align 4
  %6 = tail call ptr @p_get_proto_data(ptr noundef %4, ptr noundef %0, i32 noundef %5, i32 noundef 2)
  %.not = icmp eq ptr %6, null
  br i1 %.not, label %10, label %7

7:                                                ; preds = %2
  %8 = getelementptr inbounds nuw i8, ptr %6, i64 16
  %9 = load ptr, ptr %8, align 8
  %.not7 = icmp eq ptr %9, null
  br i1 %.not7, label %10, label %11

10:                                               ; preds = %7, %2
  br label %11

11:                                               ; preds = %7, %10
  %.0 = phi ptr [ %1, %10 ], [ %9, %7 ]
  ret ptr %.0
}